; Function Attrs: nounwind uwtable
define internal fastcc noalias nonnull ptr @_init_l_Lean_Elab_Tactic_Conv_evalFun___regBuiltin_Lean_Elab_Tactic_Conv_evalFun_declRange__3___closed__3() unnamed_addr #1 {
  %1 = load ptr, ptr @l_Lean_Elab_Tactic_Conv_evalFun___regBuiltin_Lean_Elab_Tactic_Conv_evalFun_declRange__3___closed__1, align 8, !tbaa !11
  %2 = load ptr, ptr @l_Lean_Elab_Tactic_Conv_evalFun___regBuiltin_Lean_Elab_Tactic_Conv_evalFun_declRange__3___closed__2, align 8, !tbaa !11
  tail call void @lean_inc_heartbeat() #4
  %3 = tail call noalias ptr @mi_malloc_small(i64 noundef 40) #4
  %4 = icmp eq ptr %3, null
  br i1 %4, label %5, label %lean_alloc_ctor.exit

5:                                                ; preds = %0
  tail call void @lean_internal_panic_out_of_memory() #5
  unreachable

lean_alloc_ctor.exit:                             ; preds = %0
  %6 = getelementptr inbounds nuw i8, ptr %3, i64 4
  store i32 1, ptr %3, align 4, !tbaa !6
  store i32 262184, ptr %6, align 4
  %7 = getelementptr inbounds nuw i8, ptr %3, i64 8
  store ptr %1, ptr %7, align 8, !tbaa !11
  %8 = getelementptr inbounds nuw i8, ptr %3, i64 16
  store ptr inttoptr (i64 97 to ptr), ptr %8, align 8, !tbaa !11
  %9 = getelementptr inbounds nuw i8, ptr %3, i64 24
  store ptr %2, ptr %9, align 8, !tbaa !11
  %10 = getelementptr inbounds nuw i8, ptr %3, i64 32
  store ptr inttoptr (i64 75 to ptr), ptr %10, align 8, !tbaa !11
  ret ptr %3
}